; Function Attrs: mustprogress nounwind uwtable
define hidden void @_ZN4cvc58internal6theory7strings10StringsFmfD2Ev(ptr nocapture noundef nonnull align 8 dereferenceable(40) %this) unnamed_addr #5 align 2 personality ptr @__gxx_personality_v0 {
entry:
  store ptr getelementptr inbounds ({ [4 x ptr] }, ptr @_ZTVN4cvc58internal6theory7strings10StringsFmfE, i64 0, i32 0, i64 2), ptr %this, align 8
  %d_sslds = getelementptr inbounds i8, ptr %this, i64 16
  %0 = load ptr, ptr %d_sslds, align 8
  %cmp.not.i = icmp eq ptr %0, null
  br i1 %cmp.not.i, label %_ZNSt10unique_ptrIN4cvc58internal6theory7strings10StringsFmf31StringSumLengthDecisionStrategyESt14default_deleteIS5_EED2Ev.exit, label %_ZNKSt14default_deleteIN4cvc58internal6theory7strings10StringsFmf31StringSumLengthDecisionStrategyEEclEPS5_.exit.i

_ZNKSt14default_deleteIN4cvc58internal6theory7strings10StringsFmf31StringSumLengthDecisionStrategyEEclEPS5_.exit.i: ; preds = %entry
  %vtable.i.i = load ptr, ptr %0, align 8
  %vfn.i.i = getelementptr inbounds i8, ptr %vtable.i.i, i64 8
  %1 = load ptr, ptr %vfn.i.i, align 8
  tail call void %1(ptr noundef nonnull align 8 dereferenceable(192) %0) #18
  br label %_ZNSt10unique_ptrIN4cvc58internal6theory7strings10StringsFmf31StringSumLengthDecisionStrategyESt14default_deleteIS5_EED2Ev.exit

_ZNSt10unique_ptrIN4cvc58internal6theory7strings10StringsFmf31StringSumLengthDecisionStrategyESt14default_deleteIS5_EED2Ev.exit: ; preds = %entry, %_ZNKSt14default_deleteIN4cvc58internal6theory7strings10StringsFmf31StringSumLengthDecisionStrategyEEclEPS5_.exit.i
  store ptr null, ptr %d_sslds, align 8
  ret void
}